(dp0
S'a'
p1
I1
sS'c'
p2
I3
sS'b'
p3
I2
sVlibrary
p4
(dp5
S'80:37:73:ba:f7:dc'
p6
I1
sS'80:37:73:ba:f7:d8'
p7
I0
ssV"library"
p8
(dp9
S'80:37:73:ba:f7:dc'
p10
I1
sS'80:37:73:ba:f7:d8'
p11
I0
ssVMathematics Dept
p12
(dp13
S'80:37:73:ba:f7:dc'
p14
I1
sS'80:37:73:ba:f7:d8'
p15
I0
ss.